(dp0
S'gain50'
p1
cnumpy.core.multiarray
_reconstruct
p2
(cnumpy
ndarray
p3
(I0
tp4
S'b'
p5
tp6
Rp7
(I1
(I2
tp8
cnumpy
dtype
p9
(S'f8'
p10
I0
I1
tp11
Rp12
(I3
S'<'
p13
NNNI-1
I-1
I0
tp14
bI00
S'\x03f\x96\xc44D\xb9?\xb3\xfe\x8b\xcd\x1cr\xf5?'
p15
tp16
bsS'gain20'
p17
g2
(g3
(I0
tp18
g5
tp19
Rp20
(I1
(I2
tp21
g12
I00
S'\x11\x9f\x91u\x8cG\xcf?#\x02sj\xf8\xef\x06@'
p22
tp23
bsS'gain100'
p24
g2
(g3
(I0
tp25
g5
tp26
Rp27
(I1
(I2
tp28
g12
I00
S'\xd66w\x89\xb2\xba\xa8?vI\xbe\x81,\xd3\xf9?'
p29
tp30
bs.